target datalayout = "e-m:e-p270:32:32-p271:32:32-p272:64:64-i64:64-i128:128-f80:128-n8:16:32:64-S128"
target triple = "x86_64-pc-linux-gnu"

%struct.KINMemRec = type { double, ptr, ptr, double, double, i32, i32, i64, i64, i64, i64, i32, i32, i32, i32, i32, i32, i32, i32, i32, double, double, double, double, double, double, double, double, double, i32, double, i64, i64, i64, i64, i64, i64, i64, ptr, ptr, ptr, ptr, ptr, ptr, ptr, ptr, ptr, ptr, ptr, ptr, ptr, ptr, ptr, ptr, ptr, ptr, i64, i32, i32, i64, i64, i64, i64, ptr, ptr, ptr, ptr, i32, ptr, double, double, double, double, double, i32, double, double, double, i32, ptr, ptr, ptr, ptr, ptr, ptr }

@.str = private unnamed_addr constant [7 x i8] c"KINSOL\00", align 1
@.str.1 = private unnamed_addr constant [19 x i8] c"KINSetErrHandlerFn\00", align 1
@.str.2 = private unnamed_addr constant [27 x i8] c"kinsol_mem = NULL illegal.\00", align 1

; Function Attrs: nounwind uwtable
define i32 @KINSetErrHandlerFn(ptr noundef %0, ptr noundef %1, ptr noundef %2) #0 {
  %4 = alloca i32, align 4
  %5 = alloca ptr, align 8
  %6 = alloca ptr, align 8
  %7 = alloca ptr, align 8
  %8 = alloca ptr, align 8
  store ptr %0, ptr %5, align 8
  store ptr %1, ptr %6, align 8
  store ptr %2, ptr %7, align 8
  %9 = load ptr, ptr %5, align 8
  %10 = icmp eq ptr %9, null
  br i1 %10, label %11, label %12

11:                                               ; preds = %3
  call void (ptr, i32, ptr, ptr, ptr, ...) @KINProcessError(ptr noundef null, i32 noundef -1, ptr noundef @.str, ptr noundef @.str.1, ptr noundef @.str.2)
  store i32 -1, ptr %4, align 4
  br label %20

12:                                               ; preds = %3
  %13 = load ptr, ptr %5, align 8
  store ptr %13, ptr %8, align 8
  %14 = load ptr, ptr %6, align 8
  %15 = load ptr, ptr %8, align 8
  %16 = getelementptr inbounds %struct.KINMemRec, ptr %15, i32 0, i32 79
  store ptr %14, ptr %16, align 8
  %17 = load ptr, ptr %7, align 8
  %18 = load ptr, ptr %8, align 8
  %19 = getelementptr inbounds %struct.KINMemRec, ptr %18, i32 0, i32 80
  store ptr %17, ptr %19, align 8
  store i32 0, ptr %4, align 4
  br label %20

20:                                               ; preds = %12, %11
  %21 = load i32, ptr %4, align 4
  ret i32 %21
}