; Function Attrs: nounwind uwtable
define range(i32 -1, 1) i32 @KINSetErrHandlerFn(ptr noundef writeonly %0, ptr noundef %1, ptr noundef %2) local_unnamed_addr #0 {
  %4 = icmp eq ptr %0, null
  br i1 %4, label %5, label %6

5:                                                ; preds = %3
  tail call void (ptr, i32, ptr, ptr, ptr, ...) @KINProcessError(ptr noundef null, i32 noundef -1, ptr noundef nonnull @.str, ptr noundef nonnull @.str.1, ptr noundef nonnull @.str.2) #6
  br label %9

6:                                                ; preds = %3
  %7 = getelementptr inbounds nuw i8, ptr %0, i64 584
  store ptr %1, ptr %7, align 8
  %8 = getelementptr inbounds nuw i8, ptr %0, i64 592
  store ptr %2, ptr %8, align 8
  br label %9

9:                                                ; preds = %6, %5
  %.0 = phi i32 [ -1, %5 ], [ 0, %6 ]
  ret i32 %.0
}